target datalayout = "e-m:e-p270:32:32-p271:32:32-p272:64:64-i64:64-i128:128-f80:128-n8:16:32:64-S128"
target triple = "x86_64-pc-linux-gnu"

%"class.YAML::EmitFromEvents" = type { %"class.YAML::EventHandler", ptr, %"class.std::stack" }
%"class.YAML::EventHandler" = type { ptr }
%"class.std::stack" = type { %"class.std::deque" }
%"class.std::deque" = type { %"class.std::_Deque_base" }
%"class.std::_Deque_base" = type { %"struct.std::_Deque_base<YAML::EmitFromEvents::State::value, std::allocator<YAML::EmitFromEvents::State::value>>::_Deque_impl" }
%"struct.std::_Deque_base<YAML::EmitFromEvents::State::value, std::allocator<YAML::EmitFromEvents::State::value>>::_Deque_impl" = type { %"struct.std::_Deque_base<YAML::EmitFromEvents::State::value, std::allocator<YAML::EmitFromEvents::State::value>>::_Deque_impl_data" }
%"struct.std::_Deque_base<YAML::EmitFromEvents::State::value, std::allocator<YAML::EmitFromEvents::State::value>>::_Deque_impl_data" = type { ptr, i64, %"struct.std::_Deque_iterator", %"struct.std::_Deque_iterator" }
%"struct.std::_Deque_iterator" = type { ptr, ptr, ptr, ptr }

; Function Attrs: mustprogress nounwind uwtable
define linkonce_odr void @_ZNSt15_Deque_iteratorIN4YAML14EmitFromEvents5State5valueERS3_PS3_EC2Ev(ptr noundef nonnull align 8 dereferenceable(32) %0) unnamed_addr #2 comdat align 2 {
  %2 = alloca ptr, align 8
  store ptr %0, ptr %2, align 8, !tbaa !134
  %3 = load ptr, ptr %2, align 8
  %4 = getelementptr inbounds nuw %"struct.std::_Deque_iterator", ptr %3, i32 0, i32 0
  store ptr null, ptr %4, align 8, !tbaa !144
  %5 = getelementptr inbounds nuw %"struct.std::_Deque_iterator", ptr %3, i32 0, i32 1
  store ptr null, ptr %5, align 8, !tbaa !145
  %6 = getelementptr inbounds nuw %"struct.std::_Deque_iterator", ptr %3, i32 0, i32 2
  store ptr null, ptr %6, align 8, !tbaa !146
  %7 = getelementptr inbounds nuw %"struct.std::_Deque_iterator", ptr %3, i32 0, i32 3
  store ptr null, ptr %7, align 8, !tbaa !147
  ret void
}

; Function Attrs: mustprogress nounwind uwtable
define linkonce_odr void @_ZNSt15__new_allocatorIN4YAML14EmitFromEvents5State5valueEEC2Ev(ptr noundef nonnull align 1 dereferenceable(1) %0) unnamed_addr #2 comdat align 2 {
  %2 = alloca ptr, align 8
  store ptr %0, ptr %2, align 8, !tbaa !150
  ret void
}

; Function Attrs: mustprogress nounwind uwtable
define linkonce_odr void @_ZNSt11_Deque_baseIN4YAML14EmitFromEvents5State5valueESaIS3_EE16_Deque_impl_dataC2Ev(ptr noundef nonnull align 8 dereferenceable(80) %0) unnamed_addr #2 comdat align 2 {
  %2 = alloca ptr, align 8
  store ptr %0, ptr %2, align 8, !tbaa !166
  %3 = load ptr, ptr %2, align 8
  %4 = getelementptr inbounds nuw %"struct.std::_Deque_base<YAML::EmitFromEvents::State::value, std::allocator<YAML::EmitFromEvents::State::value>>::_Deque_impl_data", ptr %3, i32 0, i32 0
  store ptr null, ptr %4, align 8, !tbaa !140
  %5 = getelementptr inbounds nuw %"struct.std::_Deque_base<YAML::EmitFromEvents::State::value, std::allocator<YAML::EmitFromEvents::State::value>>::_Deque_impl_data", ptr %3, i32 0, i32 1
  store i64 0, ptr %5, align 8, !tbaa !143
  %6 = getelementptr inbounds nuw %"struct.std::_Deque_base<YAML::EmitFromEvents::State::value, std::allocator<YAML::EmitFromEvents::State::value>>::_Deque_impl_data", ptr %3, i32 0, i32 2
  call void @_ZNSt15_Deque_iteratorIN4YAML14EmitFromEvents5State5valueERS3_PS3_EC2Ev(ptr noundef nonnull align 8 dereferenceable(32) %6) #16
  %7 = getelementptr inbounds nuw %"struct.std::_Deque_base<YAML::EmitFromEvents::State::value, std::allocator<YAML::EmitFromEvents::State::value>>::_Deque_impl_data", ptr %3, i32 0, i32 3
  call void @_ZNSt15_Deque_iteratorIN4YAML14EmitFromEvents5State5valueERS3_PS3_EC2Ev(ptr noundef nonnull align 8 dereferenceable(32) %7) #16
  ret void
}

; Function Attrs: mustprogress nounwind uwtable
define linkonce_odr void @_ZNSaIN4YAML14EmitFromEvents5State5valueEEC2Ev(ptr noundef nonnull align 1 dereferenceable(1) %0) unnamed_addr #2 comdat align 2 {
  %2 = alloca ptr, align 8
  store ptr %0, ptr %2, align 8, !tbaa !136
  %3 = load ptr, ptr %2, align 8
  call void @_ZNSt15__new_allocatorIN4YAML14EmitFromEvents5State5valueEEC2Ev(ptr noundef nonnull align 1 dereferenceable(1) %3) #16
  ret void
}

; Function Attrs: mustprogress nounwind uwtable
define linkonce_odr void @_ZNSt15__new_allocatorIN4YAML14EmitFromEvents5State5valueEED2Ev(ptr noundef nonnull align 1 dereferenceable(1) %0) unnamed_addr #2 comdat align 2 {
  %2 = alloca ptr, align 8
  store ptr %0, ptr %2, align 8, !tbaa !150
  ret void
}

; Function Attrs: mustprogress nounwind uwtable
define linkonce_odr void @_ZNSt11_Deque_baseIN4YAML14EmitFromEvents5State5valueESaIS3_EE11_Deque_implC2Ev(ptr noundef nonnull align 8 dereferenceable(80) %0) unnamed_addr #2 comdat align 2 {
  %2 = alloca ptr, align 8
  store ptr %0, ptr %2, align 8, !tbaa !160
  %3 = load ptr, ptr %2, align 8
  call void @_ZNSaIN4YAML14EmitFromEvents5State5valueEEC2Ev(ptr noundef nonnull align 1 dereferenceable(1) %3) #16
  call void @_ZNSt11_Deque_baseIN4YAML14EmitFromEvents5State5valueESaIS3_EE16_Deque_impl_dataC2Ev(ptr noundef nonnull align 8 dereferenceable(80) %3) #16
  ret void
}

; Function Attrs: mustprogress uwtable
define linkonce_odr void @_ZNSt11_Deque_baseIN4YAML14EmitFromEvents5State5valueESaIS3_EEC2Ev(ptr noundef nonnull align 8 dereferenceable(80) %0) unnamed_addr #0 comdat align 2 personality ptr @__gxx_personality_v0 {
  %2 = alloca ptr, align 8
  %3 = alloca ptr, align 8
  %4 = alloca i32, align 4
  store ptr %0, ptr %2, align 8, !tbaa !138
  %5 = load ptr, ptr %2, align 8
  %6 = getelementptr inbounds nuw %"class.std::_Deque_base", ptr %5, i32 0, i32 0
  call void @_ZNSt11_Deque_baseIN4YAML14EmitFromEvents5State5valueESaIS3_EE11_Deque_implC2Ev(ptr noundef nonnull align 8 dereferenceable(80) %6) #16
  invoke void @_ZNSt11_Deque_baseIN4YAML14EmitFromEvents5State5valueESaIS3_EE17_M_initialize_mapEm(ptr noundef nonnull align 8 dereferenceable(80) %5, i64 noundef 0)
          to label %7 unwind label %8

7:                                                ; preds = %1
  ret void

8:                                                ; preds = %1
  %9 = landingpad { ptr, i32 }
          cleanup
  %10 = extractvalue { ptr, i32 } %9, 0
  store ptr %10, ptr %3, align 8
  %11 = extractvalue { ptr, i32 } %9, 1
  store i32 %11, ptr %4, align 4
  call void @_ZNSt15__new_allocatorIN4YAML14EmitFromEvents5State5valueEED2Ev(ptr noundef nonnull align 8 dereferenceable(80) %6) #16
  br label %12

12:                                               ; preds = %8
  %13 = load ptr, ptr %3, align 8
  %14 = load i32, ptr %4, align 4
  %15 = insertvalue { ptr, i32 } poison, ptr %13, 0
  %16 = insertvalue { ptr, i32 } %15, i32 %14, 1
  resume { ptr, i32 } %16
}

; Function Attrs: mustprogress uwtable
define linkonce_odr void @_ZNSt5dequeIN4YAML14EmitFromEvents5State5valueESaIS3_EEC2Ev(ptr noundef nonnull align 8 dereferenceable(80) %0) unnamed_addr #0 comdat align 2 {
  %2 = alloca ptr, align 8
  store ptr %0, ptr %2, align 8, !tbaa !132
  %3 = load ptr, ptr %2, align 8
  call void @_ZNSt11_Deque_baseIN4YAML14EmitFromEvents5State5valueESaIS3_EEC2Ev(ptr noundef nonnull align 8 dereferenceable(80) %3)
  ret void
}

; Function Attrs: mustprogress nounwind uwtable
define linkonce_odr void @_ZN4YAML12EventHandlerD2Ev(ptr noundef nonnull align 8 dereferenceable(8) %0) unnamed_addr #2 comdat align 2 {
  %2 = alloca ptr, align 8
  store ptr %0, ptr %2, align 8, !tbaa !12
  ret void
}

; Function Attrs: mustprogress uwtable
define linkonce_odr void @_ZNSt5stackIN4YAML14EmitFromEvents5State5valueESt5dequeIS3_SaIS3_EEEC2IS6_vEEv(ptr noundef nonnull align 8 dereferenceable(80) %0) unnamed_addr #0 comdat align 2 {
  %2 = alloca ptr, align 8
  store ptr %0, ptr %2, align 8, !tbaa !14
  %3 = load ptr, ptr %2, align 8
  %4 = getelementptr inbounds nuw %"class.std::stack", ptr %3, i32 0, i32 0
  call void @llvm.memset.p0.i64(ptr align 8 %4, i8 0, i64 80, i1 false)
  call void @_ZNSt5dequeIN4YAML14EmitFromEvents5State5valueESaIS3_EEC2Ev(ptr noundef nonnull align 8 dereferenceable(80) %4)
  ret void
}

; Function Attrs: inlinehint mustprogress nounwind uwtable
define linkonce_odr void @_ZN4YAML12EventHandlerC2Ev(ptr noundef nonnull align 8 dereferenceable(8) %0) unnamed_addr #1 comdat align 2 {
  %2 = alloca ptr, align 8
  store ptr %0, ptr %2, align 8, !tbaa !12
  %3 = load ptr, ptr %2, align 8
  store ptr getelementptr inbounds inrange(-16, 96) ({ [14 x ptr] }, ptr @_ZTVN4YAML12EventHandlerE, i32 0, i32 0, i32 2), ptr %3, align 8, !tbaa !10
  ret void
}

; Function Attrs: mustprogress uwtable
define void @_ZN4YAML14EmitFromEventsC2ERNS_7EmitterE(ptr noundef nonnull align 8 dereferenceable(96) %0, ptr noundef nonnull align 8 dereferenceable(72) %1) unnamed_addr #0 align 2 personality ptr @__gxx_personality_v0 {
  %3 = alloca ptr, align 8
  %4 = alloca ptr, align 8
  %5 = alloca ptr, align 8
  %6 = alloca i32, align 4
  store ptr %0, ptr %3, align 8, !tbaa !3
  store ptr %1, ptr %4, align 8, !tbaa !8
  %7 = load ptr, ptr %3, align 8
  call void @_ZN4YAML12EventHandlerC2Ev(ptr noundef nonnull align 8 dereferenceable(8) %7) #16
  store ptr getelementptr inbounds inrange(-16, 96) ({ [14 x ptr] }, ptr @_ZTVN4YAML14EmitFromEventsE, i32 0, i32 0, i32 2), ptr %7, align 8, !tbaa !10
  %8 = getelementptr inbounds nuw %"class.YAML::EmitFromEvents", ptr %7, i32 0, i32 1
  %9 = load ptr, ptr %4, align 8, !tbaa !8
  store ptr %9, ptr %8, align 8, !tbaa !8
  %10 = getelementptr inbounds nuw %"class.YAML::EmitFromEvents", ptr %7, i32 0, i32 2
  invoke void @_ZNSt5stackIN4YAML14EmitFromEvents5State5valueESt5dequeIS3_SaIS3_EEEC2IS6_vEEv(ptr noundef nonnull align 8 dereferenceable(80) %10)
          to label %11 unwind label %12

11:                                               ; preds = %2
  ret void

12:                                               ; preds = %2
  %13 = landingpad { ptr, i32 }
          cleanup
  %14 = extractvalue { ptr, i32 } %13, 0
  store ptr %14, ptr %5, align 8
  %15 = extractvalue { ptr, i32 } %13, 1
  store i32 %15, ptr %6, align 4
  call void @_ZN4YAML12EventHandlerD2Ev(ptr noundef nonnull align 8 dereferenceable(8) %7) #16
  br label %16

16:                                               ; preds = %12
  %17 = load ptr, ptr %5, align 8
  %18 = load i32, ptr %6, align 4
  %19 = insertvalue { ptr, i32 } poison, ptr %17, 0
  %20 = insertvalue { ptr, i32 } %19, i32 %18, 1
  resume { ptr, i32 } %20
}