; Function Attrs: mustprogress uwtable
define void @_ZN4YAML14EmitFromEventsC2ERNS_7EmitterE(ptr noundef nonnull align 8 dereferenceable(96) initializes((0, 96)) %0, ptr noundef nonnull align 8 dereferenceable(72) %1) unnamed_addr #0 align 2 personality ptr @__gxx_personality_v0 {
_ZNSt5stackIN4YAML14EmitFromEvents5State5valueESt5dequeIS3_SaIS3_EEEC2IS6_vEEv.exit:
  store ptr getelementptr inbounds nuw inrange(-16, 96) (i8, ptr @_ZTVN4YAML14EmitFromEventsE, i64 16), ptr %0, align 8, !tbaa !3
  %2 = getelementptr inbounds nuw i8, ptr %0, i64 8
  store ptr %1, ptr %2, align 8, !tbaa !6
  %3 = getelementptr inbounds nuw i8, ptr %0, i64 16
  tail call void @llvm.memset.p0.i64(ptr noundef nonnull align 8 dereferenceable(80) %3, i8 0, i64 80, i1 false)
  tail call void @_ZNSt11_Deque_baseIN4YAML14EmitFromEvents5State5valueESaIS3_EE17_M_initialize_mapEm(ptr noundef nonnull align 8 dereferenceable(80) %3, i64 noundef 0)
  ret void
}